target datalayout = "e-m:e-p270:32:32-p271:32:32-p272:64:64-i64:64-i128:128-f80:128-n8:16:32:64-S128"
target triple = "x86_64-pc-linux-gnu"

%"class.std::__cxx11::basic_string" = type { %"struct.std::__cxx11::basic_string<char>::_Alloc_hider", i64, %union.anon }
%"struct.std::__cxx11::basic_string<char>::_Alloc_hider" = type { ptr }
%union.anon = type { i64, [8 x i8] }

; Function Attrs: mustprogress uwtable
define dso_local noundef ptr @_ZN16VariableSelector21create_and_initializeEN6Effect6AccessERK9CGContextPK4TypePK12CVQualifiersP5BlockNSt7__cxx1112basic_stringIcSt11char_traitsIcESaIcEEE(i32 noundef %0, ptr noundef nonnull align 8 dereferenceable(216) %1, ptr noundef %2, ptr noundef %3, ptr noundef %4, ptr noundef %5) #5 align 2 personality ptr @__gxx_personality_v0 {
  %7 = alloca i32, align 4
  %8 = alloca ptr, align 8
  %9 = alloca ptr, align 8
  %10 = alloca ptr, align 8
  %11 = alloca ptr, align 8
  %12 = alloca ptr, align 8
  %13 = alloca ptr, align 8
  %14 = alloca ptr, align 8
  %15 = alloca %"class.std::__cxx11::basic_string", align 8
  %16 = alloca ptr, align 8
  %17 = alloca i32, align 4
  store i32 %0, ptr %7, align 4
  store ptr %1, ptr %8, align 8
  store ptr %2, ptr %9, align 8
  store ptr %3, ptr %10, align 8
  store ptr %4, ptr %11, align 8
  store ptr %5, ptr %12, align 8
  store ptr null, ptr %13, align 8
  store ptr null, ptr %14, align 8
  %18 = call noundef i32 @_ZN13Probabilities8get_probE8ProbName(i32 noundef 20)
  %19 = call noundef zeroext i1 @_Z12rnd_flipcoinjPK6FilterPKNSt7__cxx1112basic_stringIcSt11char_traitsIcESaIcEEE(i32 noundef %18, ptr noundef null, ptr noundef null)
  br i1 %19, label %20, label %44

20:                                               ; preds = %6
  %21 = call noundef zeroext i1 @_ZN9CGOptions19strict_const_arraysEv()
  br i1 %21, label %22, label %25

22:                                               ; preds = %20
  %23 = load ptr, ptr %9, align 8
  %24 = call noundef ptr @_ZN8Constant11make_randomEPK4Type(ptr noundef %23)
  store ptr %24, ptr %13, align 8
  br label %32

25:                                               ; preds = %20
  %26 = load i32, ptr %7, align 4
  %27 = load ptr, ptr %8, align 8
  %28 = load ptr, ptr %9, align 8
  %29 = load ptr, ptr %10, align 8
  %30 = load ptr, ptr %11, align 8
  %31 = call noundef ptr @_ZN16VariableSelector15make_init_valueEN6Effect6AccessERK9CGContextPK4TypePK12CVQualifiersP5Block(i32 noundef %26, ptr noundef nonnull align 8 dereferenceable(216) %27, ptr noundef %28, ptr noundef %29, ptr noundef %30)
  store ptr %31, ptr %13, align 8
  br label %32

32:                                               ; preds = %25, %22
  %33 = load ptr, ptr %11, align 8
  call void @_ZNSt7__cxx1112basic_stringIcSt11char_traitsIcESaIcEEC1ERKS4_(ptr noundef nonnull align 8 dereferenceable(32) %15, ptr noundef nonnull align 8 dereferenceable(32) %5)
  %34 = load ptr, ptr %8, align 8
  %35 = load ptr, ptr %9, align 8
  %36 = load ptr, ptr %13, align 8
  %37 = load ptr, ptr %10, align 8
  %38 = invoke noundef ptr @_ZN16VariableSelector24create_array_and_itemizeEP5BlockNSt7__cxx1112basic_stringIcSt11char_traitsIcESaIcEEERK9CGContextPK4TypePK10ExpressionPK12CVQualifiers(ptr noundef %33, ptr noundef %15, ptr noundef nonnull align 8 dereferenceable(216) %34, ptr noundef %35, ptr noundef %36, ptr noundef %37)
          to label %39 unwind label %40

39:                                               ; preds = %32
  store ptr %38, ptr %14, align 8
  call void @_ZNSt7__cxx1112basic_stringIcSt11char_traitsIcESaIcEED1Ev(ptr noundef nonnull align 8 dereferenceable(32) %15) #3
  br label %55

40:                                               ; preds = %32
  %41 = landingpad { ptr, i32 }
          cleanup
  %42 = extractvalue { ptr, i32 } %41, 0
  store ptr %42, ptr %16, align 8
  %43 = extractvalue { ptr, i32 } %41, 1
  store i32 %43, ptr %17, align 4
  call void @_ZNSt7__cxx1112basic_stringIcSt11char_traitsIcESaIcEED1Ev(ptr noundef nonnull align 8 dereferenceable(32) %15) #3
  br label %57

44:                                               ; preds = %6
  %45 = load i32, ptr %7, align 4
  %46 = load ptr, ptr %8, align 8
  %47 = load ptr, ptr %9, align 8
  %48 = load ptr, ptr %10, align 8
  %49 = load ptr, ptr %11, align 8
  %50 = call noundef ptr @_ZN16VariableSelector15make_init_valueEN6Effect6AccessERK9CGContextPK4TypePK12CVQualifiersP5Block(i32 noundef %45, ptr noundef nonnull align 8 dereferenceable(216) %46, ptr noundef %47, ptr noundef %48, ptr noundef %49)
  store ptr %50, ptr %13, align 8
  %51 = load ptr, ptr %9, align 8
  %52 = load ptr, ptr %13, align 8
  %53 = load ptr, ptr %10, align 8
  %54 = call noundef ptr @_ZN16VariableSelector12new_variableERKNSt7__cxx1112basic_stringIcSt11char_traitsIcESaIcEEEPK4TypePK10ExpressionPK12CVQualifiers(ptr noundef nonnull align 8 dereferenceable(32) %5, ptr noundef %51, ptr noundef %52, ptr noundef %53)
  store ptr %54, ptr %14, align 8
  br label %55

55:                                               ; preds = %44, %39
  %56 = load ptr, ptr %14, align 8
  ret ptr %56

57:                                               ; preds = %40
  %58 = load ptr, ptr %16, align 8
  %59 = load i32, ptr %17, align 4
  %60 = insertvalue { ptr, i32 } poison, ptr %58, 0
  %61 = insertvalue { ptr, i32 } %60, i32 %59, 1
  resume { ptr, i32 } %61
}