; Function Attrs: mustprogress uwtable
define dso_local noundef ptr @_ZN16VariableSelector21create_and_initializeEN6Effect6AccessERK9CGContextPK4TypePK12CVQualifiersP5BlockNSt7__cxx1112basic_stringIcSt11char_traitsIcESaIcEEE(i32 noundef %0, ptr noundef nonnull align 8 dereferenceable(216) %1, ptr noundef %2, ptr noundef %3, ptr noundef %4, ptr noundef %5) local_unnamed_addr #4 align 2 personality ptr @__gxx_personality_v0 {
  %7 = alloca %"class.std::__cxx11::basic_string", align 8
  %8 = tail call noundef i32 @_ZN13Probabilities8get_probE8ProbName(i32 noundef 20)
  %9 = tail call noundef zeroext i1 @_Z12rnd_flipcoinjPK6FilterPKNSt7__cxx1112basic_stringIcSt11char_traitsIcESaIcEEE(i32 noundef %8, ptr noundef null, ptr noundef null)
  br i1 %9, label %10, label %21

10:                                               ; preds = %6
  %11 = tail call noundef zeroext i1 @_ZN9CGOptions19strict_const_arraysEv()
  br i1 %11, label %12, label %14

12:                                               ; preds = %10
  %13 = tail call noundef ptr @_ZN8Constant11make_randomEPK4Type(ptr noundef %2)
  br label %16

14:                                               ; preds = %10
  %15 = tail call noundef ptr @_ZN16VariableSelector15make_init_valueEN6Effect6AccessERK9CGContextPK4TypePK12CVQualifiersP5Block(i32 noundef %0, ptr noundef nonnull align 8 dereferenceable(216) %1, ptr noundef %2, ptr noundef %3, ptr noundef %4)
  br label %16

16:                                               ; preds = %14, %12
  %.0 = phi ptr [ %13, %12 ], [ %15, %14 ]
  call void @_ZNSt7__cxx1112basic_stringIcSt11char_traitsIcESaIcEEC1ERKS4_(ptr noundef nonnull align 8 dereferenceable(32) %7, ptr noundef nonnull align 8 dereferenceable(32) %5)
  %17 = invoke noundef ptr @_ZN16VariableSelector24create_array_and_itemizeEP5BlockNSt7__cxx1112basic_stringIcSt11char_traitsIcESaIcEEERK9CGContextPK4TypePK10ExpressionPK12CVQualifiers(ptr noundef %4, ptr noundef nonnull %7, ptr noundef nonnull align 8 dereferenceable(216) %1, ptr noundef %2, ptr noundef %.0, ptr noundef %3)
          to label %18 unwind label %19

18:                                               ; preds = %16
  call void @_ZNSt7__cxx1112basic_stringIcSt11char_traitsIcESaIcEED1Ev(ptr noundef nonnull align 8 dereferenceable(32) %7) #19
  br label %24

19:                                               ; preds = %16
  %20 = landingpad { ptr, i32 }
          cleanup
  call void @_ZNSt7__cxx1112basic_stringIcSt11char_traitsIcESaIcEED1Ev(ptr noundef nonnull align 8 dereferenceable(32) %7) #19
  resume { ptr, i32 } %20

21:                                               ; preds = %6
  %22 = tail call noundef ptr @_ZN16VariableSelector15make_init_valueEN6Effect6AccessERK9CGContextPK4TypePK12CVQualifiersP5Block(i32 noundef %0, ptr noundef nonnull align 8 dereferenceable(216) %1, ptr noundef %2, ptr noundef %3, ptr noundef %4)
  %23 = tail call noundef ptr @_ZN16VariableSelector12new_variableERKNSt7__cxx1112basic_stringIcSt11char_traitsIcESaIcEEEPK4TypePK10ExpressionPK12CVQualifiers(ptr noundef nonnull align 8 dereferenceable(32) %5, ptr noundef %2, ptr noundef %22, ptr noundef nonnull %3)
  br label %24

24:                                               ; preds = %21, %18
  %.021 = phi ptr [ %17, %18 ], [ %23, %21 ]
  ret ptr %.021
}